target datalayout = "e-m:e-p270:32:32-p271:32:32-p272:64:64-i64:64-i128:128-f80:128-n8:16:32:64-S128"
target triple = "x86_64-pc-linux-gnu"

%struct._zend_array = type { %struct._zend_refcounted_h, %union.anon.17, i32, %union.anon.19, i32, i32, i32, i32, i64, ptr }
%struct._zend_refcounted_h = type { i32, %union.anon.16 }
%union.anon.16 = type { i32 }
%union.anon.17 = type { i32 }
%union.anon.19 = type { ptr }
%struct._zend_stack = type { i32, i32, i32, ptr }
%struct._zend_executor_globals = type { %struct._zval_struct, %struct._zval_struct, [32 x ptr], ptr, ptr, %struct._zend_array, %struct._zend_array, ptr, i32, i32, ptr, ptr, ptr, ptr, ptr, ptr, i64, ptr, ptr, i32, i32, i64, i32, i32, i32, i8, i8, %struct.zend_atomic_bool_s, %struct.zend_atomic_bool_s, ptr, i64, ptr, ptr, %struct._zend_array, %struct._zend_array, i32, i8, %struct._zval_struct, %struct._zval_struct, %struct._zend_stack, %struct._zend_stack, %struct._zend_stack, ptr, i32, i32, i64, ptr, ptr, ptr, %struct._zend_objects_store, ptr, ptr, ptr, [3 x %struct._zend_op], ptr, i8, i8, i64, i32, i32, ptr, [16 x %struct._HashTableIterator], ptr, %union._zend_function, %struct._zend_op, %struct._zend_array, i64, %struct.zend_get_gc_buffer, ptr, ptr, ptr, i64, i8, i32, ptr, ptr, i64, %struct._zend_call_stack, i64, i64, [6 x ptr] }
%struct.zend_atomic_bool_s = type { i8 }
%struct._zval_struct = type { %union._zend_value, %union.anon.21, %union.anon.24 }
%union._zend_value = type { i64 }
%union.anon.21 = type { i32 }
%union.anon.24 = type { i32 }
%struct._zend_objects_store = type { ptr, i32, i32, i32 }
%struct._HashTableIterator = type { ptr, i32, i32 }
%union._zend_function = type { %struct._zend_op_array }
%struct._zend_op_array = type { i8, [3 x i8], i32, ptr, ptr, ptr, i32, i32, ptr, ptr, ptr, ptr, i32, i32, i32, i32, ptr, ptr, ptr, ptr, ptr, i32, i32, ptr, ptr, ptr, i32, i32, i32, i32, ptr, ptr, [6 x ptr] }
%struct._zend_op = type { ptr, %union._znode_op, %union._znode_op, %union._znode_op, i32, i32, i8, i8, i8, i8 }
%union._znode_op = type { i32 }
%struct.zend_get_gc_buffer = type { ptr, ptr, ptr }
%struct._zend_call_stack = type { ptr, i64 }
%struct._zend_execute_data = type { ptr, ptr, ptr, ptr, %struct._zval_struct, ptr, ptr, ptr, ptr }
%struct.anon.25 = type { i8, [3 x i8], i32, ptr, ptr, ptr, i32, i32, ptr, ptr, ptr, ptr, i32 }
%struct._zend_refcounted = type { %struct._zend_refcounted_h }
%struct.zend_type = type { ptr, i32 }
%struct._zend_property_info = type { i32, i32, ptr, ptr, ptr, ptr, %struct.zend_type }
%struct._zend_reference = type { %struct._zend_refcounted_h, %struct._zval_struct, %union.zend_property_info_source_list }
%union.zend_property_info_source_list = type { ptr }
%struct.zend_property_info_list = type { i64, i64, [1 x ptr] }

@executor_globals = external global %struct._zend_executor_globals, align 8

; Function Attrs: nounwind uwtable
define internal ptr @zend_jit_get_prop_not_accepting_double(ptr noundef %0) #0 {
  %2 = alloca ptr, align 8
  %3 = alloca ptr, align 8
  %4 = alloca ptr, align 8
  %5 = alloca ptr, align 8
  %6 = alloca ptr, align 8
  %7 = alloca ptr, align 8
  %8 = alloca ptr, align 8
  store ptr %0, ptr %3, align 8
  br label %9

9:                                                ; preds = %1
  %10 = load ptr, ptr %3, align 8
  %11 = getelementptr inbounds %struct._zend_reference, ptr %10, i32 0, i32 2
  store ptr %11, ptr %5, align 8
  %12 = load ptr, ptr %5, align 8
  %13 = load ptr, ptr %12, align 8
  %14 = icmp ne ptr %13, null
  br i1 %14, label %15, label %60

15:                                               ; preds = %9
  %16 = load ptr, ptr %5, align 8
  %17 = load i64, ptr %16, align 8
  %18 = and i64 %17, 1
  %19 = icmp ne i64 %18, 0
  br i1 %19, label %20, label %35

20:                                               ; preds = %15
  %21 = load ptr, ptr %5, align 8
  %22 = load i64, ptr %21, align 8
  %23 = and i64 %22, -2
  %24 = inttoptr i64 %23 to ptr
  store ptr %24, ptr %8, align 8
  %25 = load ptr, ptr %8, align 8
  %26 = getelementptr inbounds %struct.zend_property_info_list, ptr %25, i32 0, i32 2
  %27 = getelementptr inbounds [1 x ptr], ptr %26, i64 0, i64 0
  store ptr %27, ptr %6, align 8
  %28 = load ptr, ptr %8, align 8
  %29 = getelementptr inbounds %struct.zend_property_info_list, ptr %28, i32 0, i32 2
  %30 = getelementptr inbounds [1 x ptr], ptr %29, i64 0, i64 0
  %31 = load ptr, ptr %8, align 8
  %32 = getelementptr inbounds %struct.zend_property_info_list, ptr %31, i32 0, i32 0
  %33 = load i64, ptr %32, align 8
  %34 = getelementptr inbounds ptr, ptr %30, i64 %33
  store ptr %34, ptr %7, align 8
  br label %39

35:                                               ; preds = %15
  %36 = load ptr, ptr %5, align 8
  store ptr %36, ptr %6, align 8
  %37 = load ptr, ptr %6, align 8
  %38 = getelementptr inbounds ptr, ptr %37, i64 1
  store ptr %38, ptr %7, align 8
  br label %39

39:                                               ; preds = %35, %20
  br label %40

40:                                               ; preds = %56, %39
  %41 = load ptr, ptr %6, align 8
  %42 = load ptr, ptr %7, align 8
  %43 = icmp ult ptr %41, %42
  br i1 %43, label %44, label %59

44:                                               ; preds = %40
  %45 = load ptr, ptr %6, align 8
  %46 = load ptr, ptr %45, align 8
  store ptr %46, ptr %4, align 8
  %47 = load ptr, ptr %4, align 8
  %48 = getelementptr inbounds %struct._zend_property_info, ptr %47, i32 0, i32 6
  %49 = getelementptr inbounds %struct.zend_type, ptr %48, i32 0, i32 1
  %50 = load i32, ptr %49, align 8
  %51 = and i32 %50, 32
  %52 = icmp ne i32 %51, 0
  br i1 %52, label %55, label %53

53:                                               ; preds = %44
  %54 = load ptr, ptr %4, align 8
  store ptr %54, ptr %2, align 8
  br label %62

55:                                               ; preds = %44
  br label %56

56:                                               ; preds = %55
  %57 = load ptr, ptr %6, align 8
  %58 = getelementptr inbounds ptr, ptr %57, i32 1
  store ptr %58, ptr %6, align 8
  br label %40

59:                                               ; preds = %40
  br label %60

60:                                               ; preds = %59, %9
  br label %61

61:                                               ; preds = %60
  store ptr null, ptr %2, align 8
  br label %62

62:                                               ; preds = %61, %53
  %63 = load ptr, ptr %2, align 8
  ret ptr %63
}

; Function Attrs: nounwind uwtable
define internal void @zend_jit_post_dec_typed_ref(ptr noundef %0, ptr noundef %1) #0 {
  %3 = alloca ptr, align 8
  %4 = alloca ptr, align 8
  %5 = alloca ptr, align 8
  %6 = alloca ptr, align 8
  %7 = alloca ptr, align 8
  %8 = alloca ptr, align 8
  %9 = alloca ptr, align 8
  %10 = alloca ptr, align 8
  %11 = alloca ptr, align 8
  %12 = alloca i32, align 4
  %13 = alloca ptr, align 8
  %14 = alloca ptr, align 8
  %15 = alloca ptr, align 8
  %16 = alloca ptr, align 8
  %17 = alloca ptr, align 8
  %18 = alloca i32, align 4
  store ptr %0, ptr %6, align 8
  store ptr %1, ptr %7, align 8
  %19 = load ptr, ptr %6, align 8
  %20 = getelementptr inbounds %struct._zend_reference, ptr %19, i32 0, i32 1
  store ptr %20, ptr %8, align 8
  br label %21

21:                                               ; preds = %2
  %22 = load ptr, ptr %7, align 8
  store ptr %22, ptr %9, align 8
  %23 = load ptr, ptr %8, align 8
  store ptr %23, ptr %10, align 8
  %24 = load ptr, ptr %10, align 8
  %25 = getelementptr inbounds %struct._zval_struct, ptr %24, i32 0, i32 0
  %26 = load ptr, ptr %25, align 8
  store ptr %26, ptr %11, align 8
  %27 = load ptr, ptr %10, align 8
  %28 = getelementptr inbounds %struct._zval_struct, ptr %27, i32 0, i32 1
  %29 = load i32, ptr %28, align 8
  store i32 %29, ptr %12, align 4
  br label %30

30:                                               ; preds = %21
  %31 = load ptr, ptr %11, align 8
  %32 = load ptr, ptr %9, align 8
  %33 = getelementptr inbounds %struct._zval_struct, ptr %32, i32 0, i32 0
  store ptr %31, ptr %33, align 8
  %34 = load i32, ptr %12, align 4
  %35 = load ptr, ptr %9, align 8
  %36 = getelementptr inbounds %struct._zval_struct, ptr %35, i32 0, i32 1
  store i32 %34, ptr %36, align 8
  br label %37

37:                                               ; preds = %30
  %38 = load i32, ptr %12, align 4
  %39 = and i32 %38, 65280
  %40 = icmp ne i32 %39, 0
  br i1 %40, label %41, label %47

41:                                               ; preds = %37
  %42 = load ptr, ptr %11, align 8
  %43 = getelementptr inbounds %struct._zend_refcounted, ptr %42, i32 0, i32 0
  store ptr %43, ptr %3, align 8
  %44 = load ptr, ptr %3, align 8
  %45 = load i32, ptr %44, align 4
  %46 = add i32 %45, 1
  store i32 %46, ptr %44, align 4
  br label %47

47:                                               ; preds = %41, %37
  br label %48

48:                                               ; preds = %47
  %49 = load ptr, ptr %8, align 8
  %50 = call i32 @decrement_function(ptr noundef %49)
  %51 = load ptr, ptr %8, align 8
  store ptr %51, ptr %4, align 8
  %52 = load ptr, ptr %4, align 8
  %53 = getelementptr inbounds %struct._zval_struct, ptr %52, i32 0, i32 1
  %54 = load i8, ptr %53, align 8
  %55 = zext i8 %54 to i32
  %56 = icmp eq i32 %55, 5
  %57 = xor i1 %56, true
  %58 = xor i1 %57, true
  %59 = zext i1 %58 to i32
  %60 = sext i32 %59 to i64
  %61 = icmp ne i64 %60, 0
  br i1 %61, label %62, label %90

62:                                               ; preds = %48
  %63 = load ptr, ptr %7, align 8
  store ptr %63, ptr %5, align 8
  %64 = load ptr, ptr %5, align 8
  %65 = getelementptr inbounds %struct._zval_struct, ptr %64, i32 0, i32 1
  %66 = load i8, ptr %65, align 8
  %67 = zext i8 %66 to i32
  %68 = icmp eq i32 %67, 4
  br i1 %68, label %69, label %90

69:                                               ; preds = %62
  %70 = load ptr, ptr %6, align 8
  %71 = call ptr @zend_jit_get_prop_not_accepting_double(ptr noundef %70)
  store ptr %71, ptr %13, align 8
  %72 = load ptr, ptr %13, align 8
  %73 = icmp ne ptr %72, null
  %74 = xor i1 %73, true
  %75 = xor i1 %74, true
  %76 = zext i1 %75 to i32
  %77 = sext i32 %76 to i64
  %78 = icmp ne i64 %77, 0
  br i1 %78, label %79, label %89

79:                                               ; preds = %69
  %80 = load ptr, ptr %6, align 8
  %81 = load ptr, ptr %13, align 8
  call void @zend_jit_throw_dec_ref_error(ptr noundef %80, ptr noundef %81)
  br label %82

82:                                               ; preds = %79
  %83 = load ptr, ptr %8, align 8
  store ptr %83, ptr %14, align 8
  %84 = load ptr, ptr %14, align 8
  %85 = getelementptr inbounds %struct._zval_struct, ptr %84, i32 0, i32 0
  store i64 -9223372036854775808, ptr %85, align 8
  %86 = load ptr, ptr %14, align 8
  %87 = getelementptr inbounds %struct._zval_struct, ptr %86, i32 0, i32 1
  store i32 4, ptr %87, align 8
  br label %88

88:                                               ; preds = %82
  br label %89

89:                                               ; preds = %88, %69
  br label %128

90:                                               ; preds = %62, %48
  %91 = load ptr, ptr %6, align 8
  %92 = load ptr, ptr %8, align 8
  %93 = load ptr, ptr getelementptr inbounds (%struct._zend_executor_globals, ptr @executor_globals, i32 0, i32 17), align 8
  %94 = getelementptr inbounds %struct._zend_execute_data, ptr %93, i32 0, i32 3
  %95 = load ptr, ptr %94, align 8
  %96 = getelementptr inbounds %struct.anon.25, ptr %95, i32 0, i32 2
  %97 = load i32, ptr %96, align 4
  %98 = and i32 %97, -2147483648
  %99 = icmp ne i32 %98, 0
  %100 = call zeroext i1 @zend_verify_ref_assignable_zval(ptr noundef %91, ptr noundef %92, i1 noundef zeroext %99)
  %101 = xor i1 %100, true
  %102 = xor i1 %101, true
  %103 = xor i1 %102, true
  %104 = zext i1 %103 to i32
  %105 = sext i32 %104 to i64
  %106 = icmp ne i64 %105, 0
  br i1 %106, label %107, label %127

107:                                              ; preds = %90
  %108 = load ptr, ptr %8, align 8
  call void @zval_ptr_dtor(ptr noundef %108)
  br label %109

109:                                              ; preds = %107
  %110 = load ptr, ptr %8, align 8
  store ptr %110, ptr %15, align 8
  %111 = load ptr, ptr %7, align 8
  store ptr %111, ptr %16, align 8
  %112 = load ptr, ptr %16, align 8
  %113 = getelementptr inbounds %struct._zval_struct, ptr %112, i32 0, i32 0
  %114 = load ptr, ptr %113, align 8
  store ptr %114, ptr %17, align 8
  %115 = load ptr, ptr %16, align 8
  %116 = getelementptr inbounds %struct._zval_struct, ptr %115, i32 0, i32 1
  %117 = load i32, ptr %116, align 8
  store i32 %117, ptr %18, align 4
  br label %118

118:                                              ; preds = %109
  %119 = load ptr, ptr %17, align 8
  %120 = load ptr, ptr %15, align 8
  %121 = getelementptr inbounds %struct._zval_struct, ptr %120, i32 0, i32 0
  store ptr %119, ptr %121, align 8
  %122 = load i32, ptr %18, align 4
  %123 = load ptr, ptr %15, align 8
  %124 = getelementptr inbounds %struct._zval_struct, ptr %123, i32 0, i32 1
  store i32 %122, ptr %124, align 8
  br label %125

125:                                              ; preds = %118
  br label %126

126:                                              ; preds = %125
  br label %127

127:                                              ; preds = %126, %90
  br label %128

128:                                              ; preds = %127, %89
  ret void
}