; Function Attrs: nounwind uwtable
define internal void @zend_jit_post_dec_typed_ref(ptr noundef %0, ptr nocapture noundef %1) #0 {
  %3 = getelementptr inbounds i8, ptr %0, i64 8
  %4 = load ptr, ptr %3, align 8
  %5 = getelementptr inbounds i8, ptr %0, i64 16
  %6 = load i32, ptr %5, align 8
  store ptr %4, ptr %1, align 8
  %7 = getelementptr inbounds i8, ptr %1, i64 8
  store i32 %6, ptr %7, align 8
  %8 = and i32 %6, 65280
  %.not = icmp eq i32 %8, 0
  br i1 %.not, label %12, label %9

9:                                                ; preds = %2
  %10 = load i32, ptr %4, align 4
  %11 = add i32 %10, 1
  store i32 %11, ptr %4, align 4
  br label %12

12:                                               ; preds = %2, %9
  %13 = tail call i32 @decrement_function(ptr noundef nonnull %3) #32
  %14 = load i8, ptr %5, align 8
  %15 = icmp eq i8 %14, 5
  br i1 %15, label %16, label %39

16:                                               ; preds = %12
  %17 = load i8, ptr %7, align 8
  %18 = icmp eq i8 %17, 4
  br i1 %18, label %19, label %39

19:                                               ; preds = %16
  %20 = getelementptr inbounds i8, ptr %0, i64 24
  %21 = load ptr, ptr %20, align 8
  %.not.i = icmp eq ptr %21, null
  %22 = ptrtoint ptr %21 to i64
  br i1 %.not.i, label %zend_jit_get_prop_not_accepting_double.exit.thread, label %23

23:                                               ; preds = %19
  %24 = and i64 %22, 1
  %.not18.i = icmp eq i64 %24, 0
  br i1 %.not18.i, label %.thread.i, label %26

.thread.i:                                        ; preds = %23
  %25 = getelementptr inbounds i8, ptr %0, i64 32
  br label %.lr.ph.preheader.i

26:                                               ; preds = %23
  %27 = and i64 %22, -2
  %28 = inttoptr i64 %27 to ptr
  %.ptr.i = getelementptr inbounds i8, ptr %28, i64 16
  %29 = load i64, ptr %28, align 8
  %.idx.i = shl nsw i64 %29, 3
  %30 = getelementptr i8, ptr %28, i64 %.idx.i
  %.ptr27.i = getelementptr i8, ptr %30, i64 16
  %31 = icmp sgt i64 %29, 0
  br i1 %31, label %.lr.ph.preheader.i, label %zend_jit_get_prop_not_accepting_double.exit.thread

.lr.ph.preheader.i:                               ; preds = %26, %.thread.i
  %.01626.i = phi ptr [ %25, %.thread.i ], [ %.ptr27.i, %26 ]
  %.01725.i = phi ptr [ %20, %.thread.i ], [ %.ptr.i, %26 ]
  br label %.lr.ph.i

32:                                               ; preds = %.lr.ph.i
  %33 = getelementptr inbounds i8, ptr %.120.i, i64 8
  %34 = icmp ult ptr %33, %.01626.i
  br i1 %34, label %.lr.ph.i, label %zend_jit_get_prop_not_accepting_double.exit.thread

.lr.ph.i:                                         ; preds = %32, %.lr.ph.preheader.i
  %.120.i = phi ptr [ %33, %32 ], [ %.01725.i, %.lr.ph.preheader.i ]
  %35 = load ptr, ptr %.120.i, align 8
  %36 = getelementptr inbounds i8, ptr %35, i64 48
  %37 = load i32, ptr %36, align 8
  %38 = and i32 %37, 32
  %.not19.i = icmp eq i32 %38, 0
  br i1 %.not19.i, label %zend_jit_get_prop_not_accepting_double.exit, label %32

zend_jit_get_prop_not_accepting_double.exit:      ; preds = %.lr.ph.i
  tail call fastcc void @zend_jit_throw_dec_ref_error(ptr noundef nonnull %35)
  br label %zend_jit_get_prop_not_accepting_double.exit.thread.sink.split

39:                                               ; preds = %16, %12
  %40 = load ptr, ptr getelementptr inbounds (%struct._zend_executor_globals, ptr @executor_globals, i64 0, i32 17), align 8
  %41 = getelementptr inbounds i8, ptr %40, i64 24
  %42 = load ptr, ptr %41, align 8
  %43 = getelementptr inbounds i8, ptr %42, i64 4
  %44 = load i32, ptr %43, align 4
  %45 = icmp slt i32 %44, 0
  %46 = tail call zeroext i1 @zend_verify_ref_assignable_zval(ptr noundef nonnull %0, ptr noundef nonnull %3, i1 noundef zeroext %45) #32
  br i1 %46, label %zend_jit_get_prop_not_accepting_double.exit.thread, label %47

47:                                               ; preds = %39
  tail call void @zval_ptr_dtor(ptr noundef nonnull %3) #32
  %48 = load ptr, ptr %1, align 8
  %49 = load i32, ptr %7, align 8
  br label %zend_jit_get_prop_not_accepting_double.exit.thread.sink.split

zend_jit_get_prop_not_accepting_double.exit.thread.sink.split: ; preds = %zend_jit_get_prop_not_accepting_double.exit, %47
  %storemerge = phi ptr [ %48, %47 ], [ inttoptr (i64 -9223372036854775808 to ptr), %zend_jit_get_prop_not_accepting_double.exit ]
  %.sink = phi i32 [ %49, %47 ], [ 4, %zend_jit_get_prop_not_accepting_double.exit ]
  store ptr %storemerge, ptr %3, align 8
  store i32 %.sink, ptr %5, align 8
  br label %zend_jit_get_prop_not_accepting_double.exit.thread

zend_jit_get_prop_not_accepting_double.exit.thread: ; preds = %32, %zend_jit_get_prop_not_accepting_double.exit.thread.sink.split, %26, %19, %39
  ret void
}